; Function Attrs: mustprogress nounwind uwtable
define hidden void @printnm(i64 noundef %0) local_unnamed_addr #1 {
  %2 = alloca [256 x i8], align 16
  %3 = call noundef i32 (ptr, i64, ptr, ...) @_ZN2os16snprintf_checkedEPcmPKcz(ptr noundef nonnull %2, i64 noundef 256, ptr noundef nonnull @.str.22, i64 noundef %0) #16
  %4 = call align 8 ptr @llvm.threadlocal.address.p0(ptr align 8 @_ZN6Thread12_thr_currentE)
  %5 = load ptr, ptr %4, align 8
  %6 = getelementptr inbounds i8, ptr %5, i64 800
  %7 = load ptr, ptr %6, align 8
  %8 = getelementptr inbounds i8, ptr %7, i64 24
  %9 = load ptr, ptr %8, align 8
  %10 = getelementptr inbounds i8, ptr %7, i64 32
  %11 = load ptr, ptr %10, align 8
  %12 = getelementptr inbounds i8, ptr %7, i64 40
  %13 = load ptr, ptr %12, align 8
  %14 = getelementptr inbounds i8, ptr %7, i64 8
  %15 = load i64, ptr %14, align 8
  %16 = load i32, ptr @_ZN16DebuggingContext8_enabledE, align 4
  %17 = add nsw i32 %16, 1
  store i32 %17, ptr @_ZN16DebuggingContext8_enabledE, align 4
  %18 = load i32, ptr @_ZN7Command5levelE, align 4
  %19 = add nsw i32 %18, 1
  store i32 %19, ptr @_ZN7Command5levelE, align 4
  %20 = icmp sgt i32 %18, 0
  br i1 %20, label %_ZN7CommandC2EPKc.exit, label %21

21:                                               ; preds = %1
  %22 = load ptr, ptr @tty, align 8
  call void @_ZN12outputStream2crEv(ptr noundef nonnull align 8 dereferenceable(56) %22) #16
  %23 = load ptr, ptr @tty, align 8
  call void (ptr, ptr, ...) @_ZN12outputStream8print_crEPKcz(ptr noundef nonnull align 8 dereferenceable(56) %23, ptr noundef nonnull @.str.82, ptr noundef nonnull %2) #16
  br label %_ZN7CommandC2EPKc.exit

_ZN7CommandC2EPKc.exit:                           ; preds = %1, %21
  %24 = inttoptr i64 %0 to ptr
  %25 = call noundef ptr @_ZN9CodeCache9find_blobEPv(ptr noundef %24) #16
  %.not = icmp eq ptr %25, null
  br i1 %.not, label %31, label %26

26:                                               ; preds = %_ZN7CommandC2EPKc.exit
  %27 = getelementptr inbounds i8, ptr %25, i64 52
  %28 = load i8, ptr %27, align 4
  %29 = icmp eq i8 %28, 1
  br i1 %29, label %30, label %31

30:                                               ; preds = %26
  call void @_ZN7nmethod13print_nmethodEb(ptr noundef nonnull align 8 dereferenceable(214) %25, i1 noundef zeroext true) #16
  br label %33

31:                                               ; preds = %26, %_ZN7CommandC2EPKc.exit
  %32 = load ptr, ptr @tty, align 8
  call void (ptr, ptr, ...) @_ZN12outputStream8print_crEPKcz(ptr noundef nonnull align 8 dereferenceable(56) %32, ptr noundef nonnull @.str.23) #16
  br label %33

33:                                               ; preds = %31, %30
  %34 = load ptr, ptr @tty, align 8
  %35 = load ptr, ptr %34, align 8
  %36 = load ptr, ptr %35, align 8
  call void %36(ptr noundef nonnull align 8 dereferenceable(56) %34) #16
  %37 = load i32, ptr @_ZN7Command5levelE, align 4
  %38 = add nsw i32 %37, -1
  store i32 %38, ptr @_ZN7Command5levelE, align 4
  %39 = load i32, ptr @_ZN16DebuggingContext8_enabledE, align 4
  %40 = icmp sgt i32 %39, 0
  br i1 %40, label %_ZN16DebuggingContextD2Ev.exit.i, label %41

41:                                               ; preds = %33
  %42 = load ptr, ptr @g_assert_poison, align 8
  store i8 88, ptr %42, align 1
  call void (i32, ptr, i32, ptr, ...) @_Z12report_fatal11VMErrorTypePKciS1_z(i32 noundef -536870912, ptr noundef nonnull @.str, i32 noundef 91, ptr noundef nonnull @.str.4) #15
  unreachable

_ZN16DebuggingContextD2Ev.exit.i:                 ; preds = %33
  %43 = add nsw i32 %39, -1
  store i32 %43, ptr @_ZN16DebuggingContext8_enabledE, align 4
  %44 = load ptr, ptr %9, align 8
  %.not.i.i.i.i.i = icmp eq ptr %44, null
  br i1 %.not.i.i.i.i.i, label %46, label %45

45:                                               ; preds = %_ZN16DebuggingContextD2Ev.exit.i
  call void @_ZN5Arena17set_size_in_bytesEm(ptr noundef nonnull align 8 dereferenceable(48) %7, i64 noundef %15) #16
  call void @_ZN5Chunk9next_chopEPS_(ptr noundef nonnull %9) #16
  br label %46

46:                                               ; preds = %45, %_ZN16DebuggingContextD2Ev.exit.i
  %47 = load ptr, ptr %10, align 8
  %.not8.i.i.i.i.i = icmp eq ptr %47, %11
  br i1 %.not8.i.i.i.i.i, label %_ZN7CommandD2Ev.exit, label %48

48:                                               ; preds = %46
  store ptr %9, ptr %8, align 8
  store ptr %11, ptr %10, align 8
  store ptr %13, ptr %12, align 8
  br label %_ZN7CommandD2Ev.exit

_ZN7CommandD2Ev.exit:                             ; preds = %46, %48
  ret void
}